; Function Attrs: mustprogress nounwind uwtable
define dso_local noundef zeroext i1 @_ZN4llvm24rewriteAArch64FrameIndexERNS_12MachineInstrEjjRNS_11StackOffsetEPKNS_16AArch64InstrInfoE(ptr noundef nonnull align 8 dereferenceable(70) %0, i32 noundef %1, i32 noundef %2, ptr nocapture noundef nonnull align 8 dereferenceable(16) %3, ptr nocapture noundef readonly %4) local_unnamed_addr #1 {
  %6 = alloca %"class.llvm::StackOffset", align 8
  %7 = alloca i64, align 8
  %8 = alloca i32, align 4
  %9 = alloca i8, align 1
  %10 = getelementptr inbounds nuw i8, ptr %0, i64 68
  %11 = load i16, ptr %10, align 4
  %12 = add i32 %1, 1
  switch i16 %11, label %28 [
    i16 1465, label %13
    i16 1450, label %13
  ]

13:                                               ; preds = %5, %5
  %14 = icmp eq i16 %11, 1450
  %15 = getelementptr inbounds nuw i8, ptr %0, i64 32
  %16 = load ptr, ptr %15, align 8
  %17 = zext i32 %12 to i64
  %18 = getelementptr inbounds %"class.llvm::MachineOperand", ptr %16, i64 %17, i32 3
  %19 = load i64, ptr %18, align 8
  %20 = load i64, ptr %3, align 8
  %21 = add nsw i64 %20, %19
  store i64 %21, ptr %3, align 8
  %22 = getelementptr inbounds nuw i8, ptr %0, i64 24
  %23 = load ptr, ptr %22, align 8
  %24 = getelementptr inbounds nuw i8, ptr %0, i64 56
  %25 = load ptr, ptr %15, align 8
  %26 = getelementptr inbounds nuw i8, ptr %25, i64 4
  %27 = load i32, ptr %26, align 4
  call void @llvm.memset.p0.i64(ptr noundef nonnull align 8 dereferenceable(16) %6, i8 0, i64 16, i1 false)
  tail call void @_ZN4llvm15emitFrameOffsetERNS_17MachineBasicBlockENS_26MachineInstrBundleIteratorINS_12MachineInstrELb0EEERKNS_8DebugLocEjjNS_11StackOffsetEPKNS_15TargetInstrInfoENS3_6MIFlagEbbPbbS8_j(ptr noundef nonnull align 8 dereferenceable(288) %23, ptr nonnull %0, ptr noundef nonnull align 8 dereferenceable(8) %24, i32 noundef %27, i32 noundef %2, ptr noundef nonnull byval(%"class.llvm::StackOffset") align 8 %3, ptr noundef %4, i32 noundef 0, i1 noundef zeroext %14, i1 noundef zeroext false, ptr noundef null, i1 noundef zeroext false, ptr noundef nonnull byval(%"class.llvm::StackOffset") align 8 %6, i32 noundef 8)
  tail call void @_ZN4llvm12MachineInstr15eraseFromParentEv(ptr noundef nonnull align 8 dereferenceable(70) %0) #27
  tail call void @llvm.memset.p0.i64(ptr noundef nonnull align 8 dereferenceable(16) %3, i8 0, i64 16, i1 false)
  br label %57

28:                                               ; preds = %5
  %29 = call noundef i32 @_ZN4llvm25isAArch64FrameOffsetLegalERKNS_12MachineInstrERNS_11StackOffsetEPbPjPl(ptr noundef nonnull align 8 dereferenceable(70) %0, ptr noundef nonnull align 8 dereferenceable(16) %3, ptr noundef nonnull %9, ptr noundef nonnull %8, ptr noundef nonnull %7)
  %.not = icmp ult i32 %29, 2
  br i1 %.not, label %57, label %30

30:                                               ; preds = %28
  %31 = and i32 %29, 1
  %.not30 = icmp eq i32 %31, 0
  br i1 %.not30, label %37, label %32

32:                                               ; preds = %30
  %33 = getelementptr inbounds nuw i8, ptr %0, i64 32
  %34 = load ptr, ptr %33, align 8
  %35 = zext i32 %1 to i64
  %36 = getelementptr inbounds %"class.llvm::MachineOperand", ptr %34, i64 %35
  call void @_ZN4llvm14MachineOperand16ChangeToRegisterENS_8RegisterEbbbbbb(ptr noundef nonnull align 8 dereferenceable(32) %36, i32 %2, i1 noundef zeroext false, i1 noundef zeroext false, i1 noundef zeroext false, i1 noundef zeroext false, i1 noundef zeroext false, i1 noundef zeroext false) #27
  br label %37

37:                                               ; preds = %32, %30
  %38 = load i8, ptr %9, align 1
  %39 = trunc i8 %38 to i1
  br i1 %39, label %40, label %47

40:                                               ; preds = %37
  %41 = getelementptr inbounds i8, ptr %4, i64 8
  %42 = load i32, ptr %8, align 4
  %43 = load ptr, ptr %41, align 8
  %44 = zext i32 %42 to i64
  %45 = sub nsw i64 0, %44
  %46 = getelementptr inbounds %"class.llvm::MCInstrDesc", ptr %43, i64 %45
  call void @_ZN4llvm12MachineInstr7setDescERKNS_11MCInstrDescE(ptr noundef nonnull align 8 dereferenceable(70) %0, ptr noundef nonnull align 8 dereferenceable(32) %46) #27
  br label %47

47:                                               ; preds = %40, %37
  %48 = getelementptr inbounds nuw i8, ptr %0, i64 32
  %49 = load ptr, ptr %48, align 8
  %50 = zext i32 %12 to i64
  %51 = getelementptr inbounds %"class.llvm::MachineOperand", ptr %49, i64 %50
  %52 = load i64, ptr %7, align 8
  call void @_ZN4llvm14MachineOperand17ChangeToImmediateElj(ptr noundef nonnull align 8 dereferenceable(32) %51, i64 noundef %52, i32 noundef 0) #27
  %53 = load i64, ptr %3, align 8
  %.not.i = icmp eq i64 %53, 0
  %54 = getelementptr inbounds nuw i8, ptr %3, i64 8
  %55 = load i64, ptr %54, align 8
  %56 = icmp eq i64 %55, 0
  %.not35 = select i1 %.not.i, i1 %56, i1 false
  br label %57

57:                                               ; preds = %28, %47, %13
  %.0 = phi i1 [ true, %13 ], [ %.not35, %47 ], [ false, %28 ]
  ret i1 %.0
}